target datalayout = "e-m:e-p270:32:32-p271:32:32-p272:64:64-i64:64-i128:128-f80:128-n8:16:32:64-S128"
target triple = "x86_64-pc-linux-gnu"

%"class.std::ios_base::Init" = type { i8 }
%"class.std::ios_base" = type { ptr, i64, i64, i32, i32, i32, ptr, %"struct.std::ios_base::_Words", [8 x %"struct.std::ios_base::_Words"], i32, ptr, %"class.std::locale" }
%"struct.std::ios_base::_Words" = type { ptr, i64 }
%"class.std::locale" = type { ptr }

$_ZNSt11char_traitsIcE6lengthEPKc = comdat any

$_ZStorSt12_Ios_IostateS_ = comdat any

@_ZStL8__ioinit = internal global %"class.std::ios_base::Init" zeroinitializer, align 1
@__dso_handle = external hidden global i8
@.str = private unnamed_addr constant [4 x i8] c"ONE\00", align 1
@.str.1 = private unnamed_addr constant [16 x i8] c"INTERPRETED_ONE\00", align 1
@.str.2 = private unnamed_addr constant [7 x i8] c"FINITE\00", align 1
@.str.3 = private unnamed_addr constant [19 x i8] c"INTERPRETED_FINITE\00", align 1
@.str.4 = private unnamed_addr constant [9 x i8] c"INFINITE\00", align 1
@.str.5 = private unnamed_addr constant [8 x i8] c"UNKNOWN\00", align 1
@.str.6 = private unnamed_addr constant [19 x i8] c"?CardinalityClass?\00", align 1
@llvm.global_ctors = appending global [1 x { i32, ptr, ptr }] [{ i32, ptr, ptr } { i32 65535, ptr @_GLOBAL__sub_I_cardinality_class.cpp, ptr null }]

; Function Attrs: uwtable
define internal void @__cxx_global_var_init() #0 section ".text.startup" {
  call void @_ZNSt8ios_base4InitC1Ev(ptr noundef nonnull align 1 dereferenceable(1) @_ZStL8__ioinit)
  %1 = call i32 @__cxa_atexit(ptr @_ZNSt8ios_base4InitD1Ev, ptr @_ZStL8__ioinit, ptr @__dso_handle) #3
  ret void
}

declare void @_ZNSt8ios_base4InitC1Ev(ptr noundef nonnull align 1 dereferenceable(1)) unnamed_addr #1

; Function Attrs: nounwind
declare void @_ZNSt8ios_base4InitD1Ev(ptr noundef nonnull align 1 dereferenceable(1)) unnamed_addr #2

; Function Attrs: nounwind
declare i32 @__cxa_atexit(ptr, ptr, ptr) #3

; Function Attrs: mustprogress nounwind uwtable
define hidden noundef ptr @_ZN4cvc58internal8toStringENS0_16CardinalityClassE(i64 noundef %0) #4 {
  %2 = alloca ptr, align 8
  %3 = alloca i64, align 8
  store i64 %0, ptr %3, align 8, !tbaa !3
  %4 = load i64, ptr %3, align 8, !tbaa !3
  switch i64 %4, label %11 [
    i64 0, label %5
    i64 1, label %6
    i64 2, label %7
    i64 3, label %8
    i64 4, label %9
    i64 5, label %10
  ]

5:                                                ; preds = %1
  store ptr @.str, ptr %2, align 8
  br label %12

6:                                                ; preds = %1
  store ptr @.str.1, ptr %2, align 8
  br label %12

7:                                                ; preds = %1
  store ptr @.str.2, ptr %2, align 8
  br label %12

8:                                                ; preds = %1
  store ptr @.str.3, ptr %2, align 8
  br label %12

9:                                                ; preds = %1
  store ptr @.str.4, ptr %2, align 8
  br label %12

10:                                               ; preds = %1
  store ptr @.str.5, ptr %2, align 8
  br label %12

11:                                               ; preds = %1
  store ptr @.str.6, ptr %2, align 8
  br label %12

12:                                               ; preds = %11, %10, %9, %8, %7, %6, %5
  %13 = load ptr, ptr %2, align 8
  ret ptr %13
}

; Function Attrs: mustprogress uwtable
define hidden noundef nonnull align 8 dereferenceable(8) ptr @_ZN4cvc58internallsERSoNS0_16CardinalityClassE(ptr noundef nonnull align 8 dereferenceable(8) %0, i64 noundef %1) #5 {
  %3 = alloca ptr, align 8
  %4 = alloca i64, align 8
  store ptr %0, ptr %3, align 8, !tbaa !7
  store i64 %1, ptr %4, align 8, !tbaa !3
  %5 = load ptr, ptr %3, align 8, !tbaa !7
  %6 = load i64, ptr %4, align 8, !tbaa !3
  %7 = call noundef ptr @_ZN4cvc58internal8toStringENS0_16CardinalityClassE(i64 noundef %6)
  %8 = call noundef nonnull align 8 dereferenceable(8) ptr @_ZStlsISt11char_traitsIcEERSt13basic_ostreamIcT_ES5_PKc(ptr noundef nonnull align 8 dereferenceable(8) %5, ptr noundef %7)
  %9 = load ptr, ptr %3, align 8, !tbaa !7
  ret ptr %9
}

; Function Attrs: inlinehint mustprogress uwtable
define available_externally noundef nonnull align 8 dereferenceable(8) ptr @_ZStlsISt11char_traitsIcEERSt13basic_ostreamIcT_ES5_PKc(ptr noundef nonnull align 8 dereferenceable(8) %0, ptr noundef %1) #6 {
  %3 = alloca ptr, align 8
  %4 = alloca ptr, align 8
  store ptr %0, ptr %3, align 8, !tbaa !7
  store ptr %1, ptr %4, align 8, !tbaa !10
  %5 = load ptr, ptr %4, align 8, !tbaa !10
  %6 = icmp ne ptr %5, null
  br i1 %6, label %13, label %7

7:                                                ; preds = %2
  %8 = load ptr, ptr %3, align 8, !tbaa !7
  %9 = load ptr, ptr %8, align 8, !tbaa !12
  %10 = getelementptr i8, ptr %9, i64 -24
  %11 = load i64, ptr %10, align 8
  %12 = getelementptr inbounds i8, ptr %8, i64 %11
  call void @_ZNSt9basic_iosIcSt11char_traitsIcEE8setstateESt12_Ios_Iostate(ptr noundef nonnull align 8 dereferenceable(264) %12, i32 noundef 1)
  br label %19

13:                                               ; preds = %2
  %14 = load ptr, ptr %3, align 8, !tbaa !7
  %15 = load ptr, ptr %4, align 8, !tbaa !10
  %16 = load ptr, ptr %4, align 8, !tbaa !10
  %17 = call noundef i64 @_ZNSt11char_traitsIcE6lengthEPKc(ptr noundef %16)
  %18 = call noundef nonnull align 8 dereferenceable(8) ptr @_ZSt16__ostream_insertIcSt11char_traitsIcEERSt13basic_ostreamIT_T0_ES6_PKS3_l(ptr noundef nonnull align 8 dereferenceable(8) %14, ptr noundef %15, i64 noundef %17)
  br label %19

19:                                               ; preds = %13, %7
  %20 = load ptr, ptr %3, align 8, !tbaa !7
  ret ptr %20
}

; Function Attrs: mustprogress nounwind uwtable
define hidden noundef i64 @_ZN4cvc58internal19maxCardinalityClassENS0_16CardinalityClassES1_(i64 noundef %0, i64 noundef %1) #4 {
  %3 = alloca i64, align 8
  %4 = alloca i64, align 8
  %5 = alloca i64, align 8
  store i64 %0, ptr %4, align 8, !tbaa !3
  store i64 %1, ptr %5, align 8, !tbaa !3
  %6 = load i64, ptr %4, align 8, !tbaa !3
  %7 = icmp eq i64 %6, 1
  br i1 %7, label %8, label %11

8:                                                ; preds = %2
  %9 = load i64, ptr %5, align 8, !tbaa !3
  %10 = icmp eq i64 %9, 2
  br i1 %10, label %17, label %11

11:                                               ; preds = %8, %2
  %12 = load i64, ptr %4, align 8, !tbaa !3
  %13 = icmp eq i64 %12, 2
  br i1 %13, label %14, label %18

14:                                               ; preds = %11
  %15 = load i64, ptr %5, align 8, !tbaa !3
  %16 = icmp eq i64 %15, 1
  br i1 %16, label %17, label %18

17:                                               ; preds = %14, %8
  store i64 3, ptr %3, align 8
  br label %28

18:                                               ; preds = %14, %11
  %19 = load i64, ptr %4, align 8, !tbaa !3
  %20 = load i64, ptr %5, align 8, !tbaa !3
  %21 = icmp ugt i64 %19, %20
  br i1 %21, label %22, label %24

22:                                               ; preds = %18
  %23 = load i64, ptr %4, align 8, !tbaa !3
  br label %26

24:                                               ; preds = %18
  %25 = load i64, ptr %5, align 8, !tbaa !3
  br label %26

26:                                               ; preds = %24, %22
  %27 = phi i64 [ %23, %22 ], [ %25, %24 ]
  store i64 %27, ptr %3, align 8
  br label %28

28:                                               ; preds = %26, %17
  %29 = load i64, ptr %3, align 8
  ret i64 %29
}

; Function Attrs: mustprogress nounwind uwtable
define hidden noundef zeroext i1 @_ZN4cvc58internal24isCardinalityClassFiniteENS0_16CardinalityClassEb(i64 noundef %0, i1 noundef zeroext %1) #4 {
  %3 = alloca i1, align 1
  %4 = alloca i64, align 8
  %5 = alloca i8, align 1
  store i64 %0, ptr %4, align 8, !tbaa !3
  %6 = zext i1 %1 to i8
  store i8 %6, ptr %5, align 1, !tbaa !14
  %7 = load i64, ptr %4, align 8, !tbaa !3
  %8 = icmp eq i64 %7, 0
  br i1 %8, label %12, label %9

9:                                                ; preds = %2
  %10 = load i64, ptr %4, align 8, !tbaa !3
  %11 = icmp eq i64 %10, 2
  br i1 %11, label %12, label %13

12:                                               ; preds = %9, %2
  store i1 true, ptr %3, align 1
  br label %25

13:                                               ; preds = %9
  %14 = load i8, ptr %5, align 1, !tbaa !14, !range !16, !noundef !17
  %15 = trunc i8 %14 to i1
  br i1 %15, label %16, label %24

16:                                               ; preds = %13
  %17 = load i64, ptr %4, align 8, !tbaa !3
  %18 = icmp eq i64 %17, 1
  br i1 %18, label %22, label %19

19:                                               ; preds = %16
  %20 = load i64, ptr %4, align 8, !tbaa !3
  %21 = icmp eq i64 %20, 3
  br label %22

22:                                               ; preds = %19, %16
  %23 = phi i1 [ true, %16 ], [ %21, %19 ]
  store i1 %23, ptr %3, align 1
  br label %25

24:                                               ; preds = %13
  store i1 false, ptr %3, align 1
  br label %25

25:                                               ; preds = %24, %22, %12
  %26 = load i1, ptr %3, align 1
  ret i1 %26
}

; Function Attrs: mustprogress uwtable
define available_externally void @_ZNSt9basic_iosIcSt11char_traitsIcEE8setstateESt12_Ios_Iostate(ptr noundef nonnull align 8 dereferenceable(264) %0, i32 noundef %1) #5 align 2 {
  %3 = alloca ptr, align 8
  %4 = alloca i32, align 4
  store ptr %0, ptr %3, align 8, !tbaa !18
  store i32 %1, ptr %4, align 4, !tbaa !20
  %5 = load ptr, ptr %3, align 8
  %6 = call noundef i32 @_ZNKSt9basic_iosIcSt11char_traitsIcEE7rdstateEv(ptr noundef nonnull align 8 dereferenceable(264) %5)
  %7 = load i32, ptr %4, align 4, !tbaa !20
  %8 = call noundef i32 @_ZStorSt12_Ios_IostateS_(i32 noundef %6, i32 noundef %7)
  call void @_ZNSt9basic_iosIcSt11char_traitsIcEE5clearESt12_Ios_Iostate(ptr noundef nonnull align 8 dereferenceable(264) %5, i32 noundef %8)
  ret void
}

declare noundef nonnull align 8 dereferenceable(8) ptr @_ZSt16__ostream_insertIcSt11char_traitsIcEERSt13basic_ostreamIT_T0_ES6_PKS3_l(ptr noundef nonnull align 8 dereferenceable(8), ptr noundef, i64 noundef) #1

; Function Attrs: mustprogress nounwind uwtable
define linkonce_odr hidden noundef i64 @_ZNSt11char_traitsIcE6lengthEPKc(ptr noundef %0) #4 comdat align 2 {
  %2 = alloca ptr, align 8
  store ptr %0, ptr %2, align 8, !tbaa !10
  %3 = load ptr, ptr %2, align 8, !tbaa !10
  %4 = call i64 @strlen(ptr noundef %3) #3
  ret i64 %4
}

declare void @_ZNSt9basic_iosIcSt11char_traitsIcEE5clearESt12_Ios_Iostate(ptr noundef nonnull align 8 dereferenceable(264), i32 noundef) #1

; Function Attrs: inlinehint mustprogress nounwind uwtable
define linkonce_odr noundef i32 @_ZStorSt12_Ios_IostateS_(i32 noundef %0, i32 noundef %1) #7 comdat {
  %3 = alloca i32, align 4
  %4 = alloca i32, align 4
  store i32 %0, ptr %3, align 4, !tbaa !20
  store i32 %1, ptr %4, align 4, !tbaa !20
  %5 = load i32, ptr %3, align 4, !tbaa !20
  %6 = load i32, ptr %4, align 4, !tbaa !20
  %7 = or i32 %5, %6
  ret i32 %7
}

; Function Attrs: mustprogress nounwind uwtable
define available_externally noundef i32 @_ZNKSt9basic_iosIcSt11char_traitsIcEE7rdstateEv(ptr noundef nonnull align 8 dereferenceable(264) %0) #4 align 2 {
  %2 = alloca ptr, align 8
  store ptr %0, ptr %2, align 8, !tbaa !18
  %3 = load ptr, ptr %2, align 8
  %4 = getelementptr inbounds nuw %"class.std::ios_base", ptr %3, i32 0, i32 5
  %5 = load i32, ptr %4, align 8, !tbaa !22
  ret i32 %5
}

; Function Attrs: nounwind
declare i64 @strlen(ptr noundef) #2

; Function Attrs: uwtable
define internal void @_GLOBAL__sub_I_cardinality_class.cpp() #0 section ".text.startup" {
  call void @__cxx_global_var_init()
  ret void
}


!llvm.module.flags = !{!0, !1, !2}

!0 = !{i32 1, !"wchar_size", i32 4}
!1 = !{i32 8, !"PIC Level", i32 2}
!2 = !{i32 7, !"uwtable", i32 2}
!3 = !{!4, !4, i64 0}
!4 = !{!"_ZTSN4cvc58internal16CardinalityClassE", !5, i64 0}
!5 = !{!"omnipotent char", !6, i64 0}
!6 = !{!"Simple C++ TBAA"}
!7 = !{!8, !8, i64 0}
!8 = !{!"p1 _ZTSSo", !9, i64 0}
!9 = !{!"any pointer", !5, i64 0}
!10 = !{!11, !11, i64 0}
!11 = !{!"p1 omnipotent char", !9, i64 0}
!12 = !{!13, !13, i64 0}
!13 = !{!"vtable pointer", !6, i64 0}
!14 = !{!15, !15, i64 0}
!15 = !{!"bool", !5, i64 0}
!16 = !{i8 0, i8 2}
!17 = !{}
!18 = !{!19, !19, i64 0}
!19 = !{!"p1 _ZTSSt9basic_iosIcSt11char_traitsIcEE", !9, i64 0}
!20 = !{!21, !21, i64 0}
!21 = !{!"_ZTSSt12_Ios_Iostate", !5, i64 0}
!22 = !{!23, !21, i64 32}
!23 = !{!"_ZTSSt8ios_base", !24, i64 8, !24, i64 16, !25, i64 24, !21, i64 28, !21, i64 32, !26, i64 40, !27, i64 48, !5, i64 64, !28, i64 192, !29, i64 200, !30, i64 208}
!24 = !{!"long", !5, i64 0}
!25 = !{!"_ZTSSt13_Ios_Fmtflags", !5, i64 0}
!26 = !{!"p1 _ZTSNSt8ios_base14_Callback_listE", !9, i64 0}
!27 = !{!"_ZTSNSt8ios_base6_WordsE", !9, i64 0, !24, i64 8}
!28 = !{!"int", !5, i64 0}
!29 = !{!"p1 _ZTSNSt8ios_base6_WordsE", !9, i64 0}
!30 = !{!"_ZTSSt6locale", !31, i64 0}
!31 = !{!"p1 _ZTSNSt6locale5_ImplE", !9, i64 0}
