; ModuleID = 'bench/cvc5/original/cardinality_class.ll'
source_filename = "bench/cvc5/original/cardinality_class.ll"
target datalayout = "e-m:e-p270:32:32-p271:32:32-p272:64:64-i64:64-i128:128-f80:128-n8:16:32:64-S128"
target triple = "x86_64-pc-linux-gnu"

%"class.std::ios_base::Init" = type { i8 }

@_ZStL8__ioinit = internal global %"class.std::ios_base::Init" zeroinitializer, align 1
@__dso_handle = external hidden global i8
@.str = private unnamed_addr constant [4 x i8] c"ONE\00", align 1
@.str.1 = private unnamed_addr constant [16 x i8] c"INTERPRETED_ONE\00", align 1
@.str.2 = private unnamed_addr constant [7 x i8] c"FINITE\00", align 1
@.str.3 = private unnamed_addr constant [19 x i8] c"INTERPRETED_FINITE\00", align 1
@.str.4 = private unnamed_addr constant [9 x i8] c"INFINITE\00", align 1
@.str.5 = private unnamed_addr constant [8 x i8] c"UNKNOWN\00", align 1
@.str.6 = private unnamed_addr constant [19 x i8] c"?CardinalityClass?\00", align 1
@llvm.global_ctors = appending global [1 x { i32, ptr, ptr }] [{ i32, ptr, ptr } { i32 65535, ptr @_GLOBAL__sub_I_cardinality_class.cpp, ptr null }]
@switch.table._ZN4cvc58internallsERSoNS0_16CardinalityClassE = private unnamed_addr constant [6 x ptr] [ptr @.str, ptr @.str.1, ptr @.str.2, ptr @.str.3, ptr @.str.4, ptr @.str.5], align 8

declare void @_ZNSt8ios_base4InitC1Ev(ptr noundef nonnull align 1 dereferenceable(1)) unnamed_addr #0

; Function Attrs: nounwind
declare void @_ZNSt8ios_base4InitD1Ev(ptr noundef nonnull align 1 dereferenceable(1)) unnamed_addr #1

; Function Attrs: nofree nounwind
declare i32 @__cxa_atexit(ptr, ptr, ptr) local_unnamed_addr #2

; Function Attrs: mustprogress nofree norecurse nosync nounwind willreturn memory(none) uwtable
define hidden noundef nonnull ptr @_ZN4cvc58internal8toStringENS0_16CardinalityClassE(i64 noundef %0) local_unnamed_addr #3 {
  %2 = icmp ult i64 %0, 6
  br i1 %2, label %switch.lookup, label %3

switch.lookup:                                    ; preds = %1
  %switch.gep = getelementptr inbounds nuw [6 x ptr], ptr @switch.table._ZN4cvc58internallsERSoNS0_16CardinalityClassE, i64 0, i64 %0
  %switch.load = load ptr, ptr %switch.gep, align 8
  br label %3

3:                                                ; preds = %1, %switch.lookup
  %.0 = phi ptr [ %switch.load, %switch.lookup ], [ @.str.6, %1 ]
  ret ptr %.0
}

; Function Attrs: mustprogress uwtable
define hidden noundef nonnull align 8 dereferenceable(8) ptr @_ZN4cvc58internallsERSoNS0_16CardinalityClassE(ptr noundef nonnull returned align 8 dereferenceable(8) %0, i64 noundef %1) local_unnamed_addr #4 {
  %3 = icmp ult i64 %1, 6
  br i1 %3, label %switch.lookup, label %_ZN4cvc58internal8toStringENS0_16CardinalityClassE.exit

switch.lookup:                                    ; preds = %2
  %switch.gep = getelementptr inbounds nuw [6 x ptr], ptr @switch.table._ZN4cvc58internallsERSoNS0_16CardinalityClassE, i64 0, i64 %1
  %switch.load = load ptr, ptr %switch.gep, align 8
  br label %_ZN4cvc58internal8toStringENS0_16CardinalityClassE.exit

_ZN4cvc58internal8toStringENS0_16CardinalityClassE.exit: ; preds = %2, %switch.lookup
  %.0.i = phi ptr [ %switch.load, %switch.lookup ], [ @.str.6, %2 ]
  %4 = tail call noundef i64 @strlen(ptr noundef nonnull dereferenceable(1) %.0.i) #8
  %5 = tail call noundef nonnull align 8 dereferenceable(8) ptr @_ZSt16__ostream_insertIcSt11char_traitsIcEERSt13basic_ostreamIT_T0_ES6_PKS3_l(ptr noundef nonnull align 8 dereferenceable(8) %0, ptr noundef nonnull %.0.i, i64 noundef %4)
  ret ptr %0
}

; Function Attrs: mustprogress nofree norecurse nosync nounwind willreturn memory(none) uwtable
define hidden noundef i64 @_ZN4cvc58internal19maxCardinalityClassENS0_16CardinalityClassES1_(i64 noundef %0, i64 noundef %1) local_unnamed_addr #3 {
  %3 = icmp eq i64 %0, 1
  %4 = icmp eq i64 %1, 2
  %or.cond = and i1 %3, %4
  br i1 %or.cond, label %10, label %5

5:                                                ; preds = %2
  %6 = icmp eq i64 %0, 2
  %7 = icmp eq i64 %1, 1
  %or.cond3 = and i1 %6, %7
  br i1 %or.cond3, label %10, label %8

8:                                                ; preds = %5
  %9 = tail call i64 @llvm.umax.i64(i64 %0, i64 %1)
  br label %10

10:                                               ; preds = %2, %5, %8
  %.0 = phi i64 [ %9, %8 ], [ 3, %5 ], [ 3, %2 ]
  ret i64 %.0
}

; Function Attrs: mustprogress nofree norecurse nosync nounwind willreturn memory(none) uwtable
define hidden noundef zeroext i1 @_ZN4cvc58internal24isCardinalityClassFiniteENS0_16CardinalityClassEb(i64 noundef %0, i1 noundef zeroext %1) local_unnamed_addr #3 {
  %3 = and i64 %0, -3
  %or.cond = icmp eq i64 %3, 0
  %4 = icmp eq i64 %3, 1
  %5 = and i1 %1, %4
  %spec.select = or i1 %or.cond, %5
  ret i1 %spec.select
}

declare noundef nonnull align 8 dereferenceable(8) ptr @_ZSt16__ostream_insertIcSt11char_traitsIcEERSt13basic_ostreamIT_T0_ES6_PKS3_l(ptr noundef nonnull align 8 dereferenceable(8), ptr noundef, i64 noundef) local_unnamed_addr #0

; Function Attrs: mustprogress nofree nounwind willreturn memory(argmem: read)
declare i64 @strlen(ptr noundef captures(none)) local_unnamed_addr #5

; Function Attrs: uwtable
define internal void @_GLOBAL__sub_I_cardinality_class.cpp() #6 section ".text.startup" {
  tail call void @_ZNSt8ios_base4InitC1Ev(ptr noundef nonnull align 1 dereferenceable(1) @_ZStL8__ioinit)
  %1 = tail call i32 @__cxa_atexit(ptr nonnull @_ZNSt8ios_base4InitD1Ev, ptr nonnull @_ZStL8__ioinit, ptr nonnull @__dso_handle) #8
  ret void
}

; Function Attrs: nocallback nofree nosync nounwind speculatable willreturn memory(none)
declare i64 @llvm.umax.i64(i64, i64) #7


!llvm.module.flags = !{!0, !1, !2}

!0 = !{i32 1, !"wchar_size", i32 4}
!1 = !{i32 8, !"PIC Level", i32 2}
!2 = !{i32 7, !"uwtable", i32 2}
